; Function Attrs: nounwind uwtable
define hidden range(i32 0, 2) i32 @BN_uadd(ptr noundef %0, ptr noundef readonly captures(none) %1, ptr noundef readonly captures(none) %2) local_unnamed_addr #0 {
  %4 = getelementptr inbounds nuw i8, ptr %1, i64 8
  %5 = load i32, ptr %4, align 8, !tbaa !13
  %6 = getelementptr inbounds nuw i8, ptr %2, i64 8
  %7 = load i32, ptr %6, align 8, !tbaa !13
  %8 = icmp slt i32 %5, %7
  %spec.select = select i1 %8, ptr %1, ptr %2
  %spec.select62 = select i1 %8, ptr %2, ptr %1
  %9 = getelementptr inbounds nuw i8, ptr %spec.select62, i64 8
  %10 = load i32, ptr %9, align 8, !tbaa !13
  %11 = getelementptr inbounds nuw i8, ptr %spec.select, i64 8
  %12 = load i32, ptr %11, align 8, !tbaa !13
  %13 = add nsw i32 %10, 1
  %14 = sext i32 %13 to i64
  %15 = tail call ptr @bn_wexpand(ptr noundef %0, i64 noundef %14) #4
  %16 = icmp eq ptr %15, null
  br i1 %16, label %40, label %17

17:                                               ; preds = %3
  %18 = sub nsw i32 %10, %12
  %19 = getelementptr inbounds nuw i8, ptr %0, i64 8
  store i32 %10, ptr %19, align 8, !tbaa !13
  %20 = load ptr, ptr %spec.select62, align 8, !tbaa !14
  %21 = load ptr, ptr %spec.select, align 8, !tbaa !14
  %22 = load ptr, ptr %0, align 8, !tbaa !14
  %23 = tail call i64 @bn_add_words(ptr noundef %22, ptr noundef %20, ptr noundef %21, i32 noundef %12) #4
  %24 = sext i32 %12 to i64
  %25 = getelementptr inbounds i64, ptr %22, i64 %24
  %26 = getelementptr inbounds i64, ptr %20, i64 %24
  %.not = icmp eq i64 %23, 0
  br i1 %.not, label %.loopexit77, label %.preheader76

.preheader76:                                     ; preds = %17, %27
  %.153 = phi ptr [ %29, %27 ], [ %26, %17 ]
  %.149 = phi i32 [ %28, %27 ], [ %18, %17 ]
  %.1 = phi ptr [ %32, %27 ], [ %25, %17 ]
  %.not56.not = icmp eq i32 %.149, 0
  br i1 %.not56.not, label %.thread69, label %27

27:                                               ; preds = %.preheader76
  %28 = add nsw i32 %.149, -1
  %29 = getelementptr inbounds nuw i8, ptr %.153, i64 8
  %30 = load i64, ptr %.153, align 8, !tbaa !15
  %31 = add i64 %30, 1
  %32 = getelementptr inbounds nuw i8, ptr %.1, i64 8
  store i64 %31, ptr %.1, align 8, !tbaa !15
  %.not57 = icmp eq i64 %31, 0
  br i1 %.not57, label %.preheader76, label %.loopexit77, !llvm.loop !17

.thread69:                                        ; preds = %.preheader76
  store i64 1, ptr %.1, align 8, !tbaa !15
  %33 = load i32, ptr %19, align 8, !tbaa !13
  %34 = add nsw i32 %33, 1
  store i32 %34, ptr %19, align 8, !tbaa !13
  br label %.loopexit

.loopexit77:                                      ; preds = %27, %17
  %.052 = phi ptr [ %26, %17 ], [ %29, %27 ]
  %.048 = phi i32 [ %18, %17 ], [ %28, %27 ]
  %.047 = phi ptr [ %25, %17 ], [ %32, %27 ]
  %.not59 = icmp eq i32 %.048, 0
  %.not60 = icmp eq ptr %.047, %.052
  %or.cond = select i1 %.not59, i1 true, i1 %.not60
  br i1 %or.cond, label %.loopexit, label %.preheader

.preheader:                                       ; preds = %.loopexit77, %.preheader
  %.383 = phi ptr [ %38, %.preheader ], [ %.047, %.loopexit77 ]
  %.35182 = phi i32 [ %35, %.preheader ], [ %.048, %.loopexit77 ]
  %.35581 = phi ptr [ %36, %.preheader ], [ %.052, %.loopexit77 ]
  %35 = add nsw i32 %.35182, -1
  %36 = getelementptr inbounds nuw i8, ptr %.35581, i64 8
  %37 = load i64, ptr %.35581, align 8, !tbaa !15
  %38 = getelementptr inbounds nuw i8, ptr %.383, i64 8
  store i64 %37, ptr %.383, align 8, !tbaa !15
  %.not61 = icmp eq i32 %35, 0
  br i1 %.not61, label %.loopexit, label %.preheader, !llvm.loop !19

.loopexit:                                        ; preds = %.preheader, %.thread69, %.loopexit77
  %39 = getelementptr inbounds nuw i8, ptr %0, i64 16
  store i32 0, ptr %39, align 8, !tbaa !6
  br label %40

40:                                               ; preds = %3, %.loopexit
  %.0 = phi i32 [ 1, %.loopexit ], [ 0, %3 ]
  ret i32 %.0
}